; Function Attrs: nounwind uwtable
define dso_local ptr @PyWeakref_GetObject(ptr noundef readonly %0) local_unnamed_addr #0 {
  %2 = icmp eq ptr %0, null
  br i1 %2, label %7, label %3

3:                                                ; preds = %1
  %4 = getelementptr i8, ptr %0, i64 8
  %.val15 = load ptr, ptr %4, align 8, !tbaa !4
  %.not.i16 = icmp eq ptr %.val15, @_PyWeakref_RefType
  br i1 %.not.i16, label %PyObject_TypeCheck.exit.thread, label %PyObject_TypeCheck.exit

PyObject_TypeCheck.exit:                          ; preds = %3
  %5 = tail call i32 @PyType_IsSubtype(ptr noundef %.val15, ptr noundef nonnull @_PyWeakref_RefType) #6
  %.not19 = icmp eq i32 %5, 0
  br i1 %.not19, label %6, label %PyObject_TypeCheck.exit.thread

6:                                                ; preds = %PyObject_TypeCheck.exit
  %.val13 = load ptr, ptr %4, align 8, !tbaa !4
  %.not = icmp eq ptr %.val13, @_PyWeakref_ProxyType
  %.not20 = icmp eq ptr %.val13, @_PyWeakref_CallableProxyType
  %or.cond = or i1 %.not, %.not20
  br i1 %or.cond, label %PyObject_TypeCheck.exit.thread, label %7

7:                                                ; preds = %6, %1
  tail call void @_PyErr_BadInternalCall(ptr noundef nonnull @.str.3, i32 noundef 971) #6
  br label %Py_DECREF.exit

PyObject_TypeCheck.exit.thread:                   ; preds = %3, %6, %PyObject_TypeCheck.exit
  %8 = getelementptr i8, ptr %0, i64 16
  %.val14 = load ptr, ptr %8, align 8, !tbaa !37
  %9 = icmp eq ptr %.val14, @_Py_NoneStruct
  br i1 %9, label %Py_DECREF.exit, label %10

10:                                               ; preds = %PyObject_TypeCheck.exit.thread
  %.val.i.i = load i32, ptr %.val14, align 8, !tbaa !42
  %.not.i.i = icmp eq i32 %.val.i.i, 0
  br i1 %.not.i.i, label %Py_DECREF.exit, label %11

11:                                               ; preds = %10
  %12 = icmp slt i32 %.val.i.i, 0
  br i1 %12, label %Py_DECREF.exit, label %_PyWeakref_GET_REF.exit

_PyWeakref_GET_REF.exit:                          ; preds = %11
  %13 = add nuw i32 %.val.i.i, 1
  %.not.i22 = icmp slt i32 %13, 0
  %spec.store.select = select i1 %.not.i22, i32 %13, i32 %.val.i.i
  store i32 %spec.store.select, ptr %.val14, align 8
  br label %Py_DECREF.exit

Py_DECREF.exit:                                   ; preds = %_PyWeakref_GET_REF.exit, %11, %10, %PyObject_TypeCheck.exit.thread, %7
  %.0 = phi ptr [ null, %7 ], [ @_Py_NoneStruct, %PyObject_TypeCheck.exit.thread ], [ @_Py_NoneStruct, %10 ], [ %.val14, %11 ], [ %.val14, %_PyWeakref_GET_REF.exit ]
  ret ptr %.0
}